target datalayout = "e-m:e-p270:32:32-p271:32:32-p272:64:64-i64:64-i128:128-f80:128-n8:16:32:64-S128"
target triple = "x86_64-pc-linux-gnu"

%struct.darktable_t = type { %struct.dt_codepath_t, i32, i32, ptr, ptr, ptr, ptr, ptr, ptr, ptr, ptr, ptr, ptr, ptr, ptr, ptr, ptr, ptr, ptr, ptr, ptr, ptr, ptr, ptr, ptr, ptr, ptr, ptr, ptr, ptr, [64 x %struct.dt_pthread_mutex_t], %struct.dt_pthread_mutex_t, %struct.dt_pthread_mutex_t, %struct.dt_pthread_mutex_t, %struct.dt_pthread_mutex_t, %struct.dt_pthread_mutex_t, ptr, ptr, ptr, ptr, ptr, ptr, ptr, ptr, ptr, ptr, ptr, ptr, ptr, %struct.dt_lua_state_t, ptr, double, ptr, i32, [47 x i32], i32, i32, ptr, ptr, %struct.dt_sys_resources_t, %struct.dt_backthumb_t, %struct.dt_gimp_t }
%struct.dt_codepath_t = type { i8, [3 x i8] }
%struct.dt_pthread_mutex_t = type { %union.pthread_mutex_t }
%union.pthread_mutex_t = type { %struct.__pthread_mutex_s }
%struct.__pthread_mutex_s = type { i32, i32, i32, i32, i32, i16, i16, %struct.__pthread_internal_list }
%struct.__pthread_internal_list = type { ptr, ptr }
%struct.dt_lua_state_t = type { i32 }
%struct.dt_sys_resources_t = type { i64, i64, ptr, ptr, i32 }
%struct.dt_backthumb_t = type { double, double, i32, i32, i32, i32 }
%struct.dt_gimp_t = type { i32, ptr, ptr, i32, i32 }
%struct.dt_masks_form_t = type { ptr, i32, ptr, [2 x float], [128 x i8], i32, i32 }
%struct.dt_masks_functions_t = type { i32, ptr, ptr, ptr, ptr, ptr, ptr, ptr, ptr, ptr, ptr, ptr, ptr, ptr, ptr, ptr, ptr, ptr, ptr, ptr }
%struct.timeval = type { i64, i64 }

@darktable = external global %struct.darktable_t, align 8
@.str = private unnamed_addr constant [41 x i8] c"[masks] render all masks took %0.04f sec\00", align 1

; Function Attrs: inlinehint nounwind uwtable
define internal double @dt_get_wtime() #3 {
  %1 = alloca %struct.timeval, align 8
  call void @llvm.lifetime.start.p0(i64 16, ptr %1) #10
  %2 = call i32 @gettimeofday(ptr noundef %1, ptr noundef null) #10
  %3 = getelementptr inbounds nuw %struct.timeval, ptr %1, i32 0, i32 0
  %4 = load i64, ptr %3, align 8, !tbaa !142
  %5 = sub nsw i64 %4, 1290608000
  %6 = sitofp i64 %5 to double
  %7 = getelementptr inbounds nuw %struct.timeval, ptr %1, i32 0, i32 1
  %8 = load i64, ptr %7, align 8, !tbaa !144
  %9 = sitofp i64 %8 to double
  %10 = fmul reassoc nsz arcp contract afn double 0x3EB0C6F7A0B5ED8D, %9
  %11 = fadd reassoc nsz arcp contract afn double %6, %10
  call void @llvm.lifetime.end.p0(i64 16, ptr %1) #10
  ret double %11
}

; Function Attrs: inlinehint nounwind uwtable
define internal double @dt_get_lap_time(ptr noundef %0) #3 {
  %2 = alloca ptr, align 8
  %3 = alloca double, align 8
  store ptr %0, ptr %2, align 8, !tbaa !82
  call void @llvm.lifetime.start.p0(i64 8, ptr %3) #10
  %4 = load ptr, ptr %2, align 8, !tbaa !82
  %5 = load double, ptr %4, align 8, !tbaa !79
  store double %5, ptr %3, align 8, !tbaa !79
  %6 = call reassoc nsz arcp contract afn double @dt_get_wtime()
  %7 = load ptr, ptr %2, align 8, !tbaa !82
  store double %6, ptr %7, align 8, !tbaa !79
  %8 = load ptr, ptr %2, align 8, !tbaa !82
  %9 = load double, ptr %8, align 8, !tbaa !79
  %10 = load double, ptr %3, align 8, !tbaa !79
  %11 = fsub reassoc nsz arcp contract afn double %9, %10
  call void @llvm.lifetime.end.p0(i64 8, ptr %3) #10
  ret double %11
}

; Function Attrs: inlinehint nounwind uwtable
define internal i32 @dt_masks_get_mask_roi(ptr noundef %0, ptr noundef %1, ptr noundef %2, ptr noundef %3, ptr noundef %4) #3 {
  %6 = alloca ptr, align 8
  %7 = alloca ptr, align 8
  %8 = alloca ptr, align 8
  %9 = alloca ptr, align 8
  %10 = alloca ptr, align 8
  store ptr %0, ptr %6, align 8, !tbaa !71
  store ptr %1, ptr %7, align 8, !tbaa !73
  store ptr %2, ptr %8, align 8, !tbaa !13
  store ptr %3, ptr %9, align 8, !tbaa !75
  store ptr %4, ptr %10, align 8, !tbaa !77
  %11 = load ptr, ptr %8, align 8, !tbaa !13
  %12 = getelementptr inbounds nuw %struct.dt_masks_form_t, ptr %11, i32 0, i32 2
  %13 = load ptr, ptr %12, align 8, !tbaa !67
  %14 = icmp ne ptr %13, null
  br i1 %14, label %15, label %27

15:                                               ; preds = %5
  %16 = load ptr, ptr %8, align 8, !tbaa !13
  %17 = getelementptr inbounds nuw %struct.dt_masks_form_t, ptr %16, i32 0, i32 2
  %18 = load ptr, ptr %17, align 8, !tbaa !67
  %19 = getelementptr inbounds nuw %struct.dt_masks_functions_t, ptr %18, i32 0, i32 12
  %20 = load ptr, ptr %19, align 8, !tbaa !81
  %21 = load ptr, ptr %6, align 8, !tbaa !71
  %22 = load ptr, ptr %7, align 8, !tbaa !73
  %23 = load ptr, ptr %8, align 8, !tbaa !13
  %24 = load ptr, ptr %9, align 8, !tbaa !75
  %25 = load ptr, ptr %10, align 8, !tbaa !77
  %26 = call i32 %20(ptr noundef %21, ptr noundef %22, ptr noundef %23, ptr noundef %24, ptr noundef %25)
  br label %28

27:                                               ; preds = %5
  br label %28

28:                                               ; preds = %27, %15
  %29 = phi i32 [ %26, %15 ], [ 0, %27 ]
  ret i32 %29
}

; Function Attrs: inlinehint nounwind uwtable
define internal double @dt_get_debug_wtime() #3 {
  %1 = load i32, ptr getelementptr inbounds nuw (%struct.darktable_t, ptr @darktable, i32 0, i32 2), align 8, !tbaa !80
  %2 = icmp ne i32 %1, 0
  br i1 %2, label %3, label %5

3:                                                ; preds = %0
  %4 = call reassoc nsz arcp contract afn double @dt_get_wtime()
  br label %6

5:                                                ; preds = %0
  br label %6

6:                                                ; preds = %5, %3
  %7 = phi reassoc nsz arcp contract afn double [ %4, %3 ], [ 0.000000e+00, %5 ]
  ret double %7
}

; Function Attrs: nounwind uwtable
define i32 @dt_masks_group_render_roi(ptr noundef %0, ptr noundef %1, ptr noundef %2, ptr noundef %3, ptr noundef %4) #0 {
  %6 = alloca i32, align 4
  %7 = alloca ptr, align 8
  %8 = alloca ptr, align 8
  %9 = alloca ptr, align 8
  %10 = alloca ptr, align 8
  %11 = alloca ptr, align 8
  %12 = alloca double, align 8
  %13 = alloca i32, align 4
  store ptr %0, ptr %7, align 8, !tbaa !71
  store ptr %1, ptr %8, align 8, !tbaa !73
  store ptr %2, ptr %9, align 8, !tbaa !13
  store ptr %3, ptr %10, align 8, !tbaa !75
  store ptr %4, ptr %11, align 8, !tbaa !77
  %14 = load ptr, ptr %9, align 8, !tbaa !13
  %15 = icmp ne ptr %14, null
  br i1 %15, label %17, label %16

16:                                               ; preds = %5
  store i32 0, ptr %6, align 4
  br label %40

17:                                               ; preds = %5
  call void @llvm.lifetime.start.p0(i64 8, ptr %12) #10
  %18 = call reassoc nsz arcp contract afn double @dt_get_debug_wtime()
  store double %18, ptr %12, align 8, !tbaa !79
  call void @llvm.lifetime.start.p0(i64 4, ptr %13) #10
  %19 = load ptr, ptr %7, align 8, !tbaa !71
  %20 = load ptr, ptr %8, align 8, !tbaa !73
  %21 = load ptr, ptr %9, align 8, !tbaa !13
  %22 = load ptr, ptr %10, align 8, !tbaa !75
  %23 = load ptr, ptr %11, align 8, !tbaa !77
  %24 = call i32 @dt_masks_get_mask_roi(ptr noundef %19, ptr noundef %20, ptr noundef %21, ptr noundef %22, ptr noundef %23)
  store i32 %24, ptr %13, align 4, !tbaa !17
  br label %25

25:                                               ; preds = %17
  %26 = load i32, ptr getelementptr inbounds nuw (%struct.darktable_t, ptr @darktable, i32 0, i32 2), align 8, !tbaa !80
  %27 = and i32 4096, %26
  %28 = icmp ne i32 %27, 0
  br i1 %28, label %29, label %36

29:                                               ; preds = %25
  %30 = load i32, ptr getelementptr inbounds nuw (%struct.darktable_t, ptr @darktable, i32 0, i32 2), align 8, !tbaa !80
  %31 = xor i32 %30, -1
  %32 = and i32 16, %31
  %33 = icmp ne i32 %32, 0
  br i1 %33, label %36, label %34

34:                                               ; preds = %29
  %35 = call reassoc nsz arcp contract afn double @dt_get_lap_time(ptr noundef %12)
  call void (ptr, ...) @dt_print_ext(ptr noundef @.str, double noundef %35)
  br label %36

36:                                               ; preds = %34, %29, %25
  br label %37

37:                                               ; preds = %36
  br label %38

38:                                               ; preds = %37
  %39 = load i32, ptr %13, align 4, !tbaa !17
  store i32 %39, ptr %6, align 4
  call void @llvm.lifetime.end.p0(i64 4, ptr %13) #10
  call void @llvm.lifetime.end.p0(i64 8, ptr %12) #10
  br label %40

40:                                               ; preds = %38, %16
  %41 = load i32, ptr %6, align 4
  ret i32 %41
}