; Function Attrs: nounwind uwtable
define i32 @dt_masks_group_render_roi(ptr noundef %0, ptr noundef %1, ptr noundef %2, ptr noundef %3, ptr noundef %4) local_unnamed_addr #0 {
  %6 = alloca %struct.timeval, align 8
  %7 = alloca %struct.timeval, align 8
  %.not = icmp eq ptr %2, null
  br i1 %.not, label %41, label %8

8:                                                ; preds = %5
  %9 = load i32, ptr getelementptr inbounds nuw (i8, ptr @darktable, i64 8), align 8, !tbaa !60
  %.not.i = icmp eq i32 %9, 0
  br i1 %.not.i, label %dt_get_debug_wtime.exit, label %10

10:                                               ; preds = %8
  call void @llvm.lifetime.start.p0(i64 16, ptr nonnull %7) #12
  %11 = call i32 @gettimeofday(ptr noundef nonnull %7, ptr noundef null) #12
  %12 = load i64, ptr %7, align 8, !tbaa !61
  %13 = add nsw i64 %12, -1290608000
  %14 = sitofp i64 %13 to double
  %15 = getelementptr inbounds nuw i8, ptr %7, i64 8
  %16 = load i64, ptr %15, align 8, !tbaa !63
  %17 = sitofp i64 %16 to double
  %18 = fmul reassoc nsz arcp contract afn double %17, 0x3EB0C6F7A0B5ED8D
  %19 = fadd reassoc nsz arcp contract afn double %18, %14
  call void @llvm.lifetime.end.p0(i64 16, ptr nonnull %7) #12
  br label %dt_get_debug_wtime.exit

dt_get_debug_wtime.exit:                          ; preds = %8, %10
  %20 = phi reassoc nsz arcp contract afn double [ %19, %10 ], [ 0.000000e+00, %8 ]
  %21 = getelementptr inbounds nuw i8, ptr %2, i64 16
  %22 = load ptr, ptr %21, align 8, !tbaa !54
  %.not.i10 = icmp eq ptr %22, null
  br i1 %.not.i10, label %dt_masks_get_mask_roi.exit, label %23

23:                                               ; preds = %dt_get_debug_wtime.exit
  %24 = getelementptr inbounds nuw i8, ptr %22, i64 96
  %25 = load ptr, ptr %24, align 8, !tbaa !64
  %26 = tail call i32 %25(ptr noundef %0, ptr noundef %1, ptr noundef nonnull %2, ptr noundef %3, ptr noundef %4) #12
  br label %dt_masks_get_mask_roi.exit

dt_masks_get_mask_roi.exit:                       ; preds = %dt_get_debug_wtime.exit, %23
  %27 = phi i32 [ %26, %23 ], [ 0, %dt_get_debug_wtime.exit ]
  %28 = load i32, ptr getelementptr inbounds nuw (i8, ptr @darktable, i64 8), align 8, !tbaa !60
  %29 = and i32 %28, 4112
  %or.cond.not = icmp eq i32 %29, 4112
  br i1 %or.cond.not, label %30, label %41

30:                                               ; preds = %dt_masks_get_mask_roi.exit
  call void @llvm.lifetime.start.p0(i64 16, ptr nonnull %6) #12
  %31 = call i32 @gettimeofday(ptr noundef nonnull %6, ptr noundef null) #12
  %32 = load i64, ptr %6, align 8, !tbaa !61
  %33 = add nsw i64 %32, -1290608000
  %34 = sitofp i64 %33 to double
  %35 = getelementptr inbounds nuw i8, ptr %6, i64 8
  %36 = load i64, ptr %35, align 8, !tbaa !63
  %37 = sitofp i64 %36 to double
  %38 = fmul reassoc nsz arcp contract afn double %37, 0x3EB0C6F7A0B5ED8D
  call void @llvm.lifetime.end.p0(i64 16, ptr nonnull %6) #12
  %39 = fsub reassoc nsz arcp contract afn double %34, %20
  %40 = fadd reassoc nsz arcp contract afn double %39, %38
  tail call void (ptr, ...) @dt_print_ext(ptr noundef nonnull @.str, double noundef %40) #12
  br label %41

41:                                               ; preds = %dt_masks_get_mask_roi.exit, %30, %5
  %.0 = phi i32 [ 0, %5 ], [ %27, %30 ], [ %27, %dt_masks_get_mask_roi.exit ]
  ret i32 %.0
}